target datalayout = "e-m:e-p270:32:32-p271:32:32-p272:64:64-i64:64-i128:128-f80:128-n8:16:32:64-S128"
target triple = "x86_64-pc-linux-gnu"

; Function Attrs: nounwind uwtable
define dso_local void @raxSetData(ptr noundef %0, ptr noundef %1) #0 {
  %3 = alloca ptr, align 8
  %4 = alloca ptr, align 8
  %5 = alloca ptr, align 8
  store ptr %0, ptr %3, align 8, !tbaa !11
  store ptr %1, ptr %4, align 8, !tbaa !16
  %6 = load ptr, ptr %3, align 8, !tbaa !11
  %7 = load i32, ptr %6, align 4
  %8 = and i32 %7, -2
  %9 = or i32 %8, 1
  store i32 %9, ptr %6, align 4
  %10 = load ptr, ptr %4, align 8, !tbaa !16
  %11 = icmp ne ptr %10, null
  br i1 %11, label %12, label %67

12:                                               ; preds = %2
  %13 = load ptr, ptr %3, align 8, !tbaa !11
  %14 = load i32, ptr %13, align 4
  %15 = and i32 %14, -3
  %16 = or i32 %15, 0
  store i32 %16, ptr %13, align 4
  call void @llvm.lifetime.start.p0(i64 8, ptr %5) #13
  %17 = load ptr, ptr %3, align 8, !tbaa !11
  %18 = load ptr, ptr %3, align 8, !tbaa !11
  %19 = load i32, ptr %18, align 4
  %20 = lshr i32 %19, 3
  %21 = zext i32 %20 to i64
  %22 = add i64 4, %21
  %23 = load ptr, ptr %3, align 8, !tbaa !11
  %24 = load i32, ptr %23, align 4
  %25 = lshr i32 %24, 3
  %26 = add nsw i32 %25, 4
  %27 = sext i32 %26 to i64
  %28 = urem i64 %27, 8
  %29 = sub i64 8, %28
  %30 = and i64 %29, 7
  %31 = add i64 %22, %30
  %32 = load ptr, ptr %3, align 8, !tbaa !11
  %33 = load i32, ptr %32, align 4
  %34 = lshr i32 %33, 2
  %35 = and i32 %34, 1
  %36 = icmp ne i32 %35, 0
  br i1 %36, label %37, label %38

37:                                               ; preds = %12
  br label %44

38:                                               ; preds = %12
  %39 = load ptr, ptr %3, align 8, !tbaa !11
  %40 = load i32, ptr %39, align 4
  %41 = lshr i32 %40, 3
  %42 = zext i32 %41 to i64
  %43 = mul i64 8, %42
  br label %44

44:                                               ; preds = %38, %37
  %45 = phi i64 [ 8, %37 ], [ %43, %38 ]
  %46 = add i64 %31, %45
  %47 = load ptr, ptr %3, align 8, !tbaa !11
  %48 = load i32, ptr %47, align 4
  %49 = and i32 %48, 1
  %50 = icmp ne i32 %49, 0
  br i1 %50, label %51, label %58

51:                                               ; preds = %44
  %52 = load ptr, ptr %3, align 8, !tbaa !11
  %53 = load i32, ptr %52, align 4
  %54 = lshr i32 %53, 1
  %55 = and i32 %54, 1
  %56 = icmp ne i32 %55, 0
  %57 = xor i1 %56, true
  br label %58

58:                                               ; preds = %51, %44
  %59 = phi i1 [ false, %44 ], [ %57, %51 ]
  %60 = zext i1 %59 to i32
  %61 = sext i32 %60 to i64
  %62 = mul i64 %61, 8
  %63 = add i64 %46, %62
  %64 = getelementptr inbounds nuw i8, ptr %17, i64 %63
  %65 = getelementptr inbounds i8, ptr %64, i64 -8
  store ptr %65, ptr %5, align 8, !tbaa !16
  %66 = load ptr, ptr %5, align 8, !tbaa !16
  call void @llvm.memcpy.p0.p0.i64(ptr align 8 %66, ptr align 8 %4, i64 8, i1 false)
  call void @llvm.lifetime.end.p0(i64 8, ptr %5) #13
  br label %72

67:                                               ; preds = %2
  %68 = load ptr, ptr %3, align 8, !tbaa !11
  %69 = load i32, ptr %68, align 4
  %70 = and i32 %69, -3
  %71 = or i32 %70, 2
  store i32 %71, ptr %68, align 4
  br label %72

72:                                               ; preds = %67, %58
  ret void
}