; Function Attrs: mustprogress nofree norecurse nosync nounwind willreturn memory(argmem: readwrite) uwtable
define dso_local void @raxSetData(ptr noundef captures(none) %0, ptr noundef %1) local_unnamed_addr #6 {
  %3 = load i32, ptr %0, align 4
  %.not = icmp eq ptr %1, null
  br i1 %.not, label %18, label %4

4:                                                ; preds = %2
  %5 = and i32 %3, -4
  %6 = or disjoint i32 %5, 1
  %7 = lshr i32 %3, 3
  %8 = zext nneg i32 %7 to i64
  %9 = xor i32 %7, 3
  %.neg = add nuw nsw i32 %9, 1
  %10 = and i32 %.neg, 7
  %11 = zext nneg i32 %10 to i64
  %12 = and i32 %3, 4
  %.not12 = icmp eq i32 %12, 0
  %13 = shl nuw nsw i64 %8, 3
  %spec.select = select i1 %.not12, i64 %13, i64 8
  %14 = getelementptr inbounds nuw i8, ptr %0, i64 %8
  %15 = getelementptr inbounds nuw i8, ptr %14, i64 4
  %16 = getelementptr inbounds nuw i8, ptr %15, i64 %11
  %17 = getelementptr inbounds nuw i8, ptr %16, i64 %spec.select
  store ptr %1, ptr %17, align 8
  br label %20

18:                                               ; preds = %2
  %19 = or i32 %3, 3
  br label %20

20:                                               ; preds = %18, %4
  %.sink = phi i32 [ %19, %18 ], [ %6, %4 ]
  store i32 %.sink, ptr %0, align 4
  ret void
}